target datalayout = "e-m:e-p270:32:32-p271:32:32-p272:64:64-i64:64-i128:128-f80:128-n8:16:32:64-S128"
target triple = "x86_64-pc-linux-gnu"

@uriencode_str = internal global [768 x i8] zeroinitializer, align 16
@uriencode_map = internal global [256 x ptr] zeroinitializer, align 16
@.str = private unnamed_addr constant [9 x i8] c"%%%02hhX\00", align 1

; Function Attrs: nounwind uwtable
define dso_local void @uriencode_init() #0 {
  %1 = alloca i32, align 4
  %2 = alloca ptr, align 8
  call void @llvm.lifetime.start.p0(i64 4, ptr %1) #8
  call void @llvm.lifetime.start.p0(i64 8, ptr %2) #8
  store ptr @uriencode_str, ptr %2, align 8, !tbaa !4
  store i32 0, ptr %1, align 4, !tbaa !9
  br label %3

3:                                                ; preds = %45, %0
  %4 = load i32, ptr %1, align 4, !tbaa !9
  %5 = icmp slt i32 %4, 256
  br i1 %5, label %6, label %48

6:                                                ; preds = %3
  %7 = call ptr @__ctype_b_loc() #9
  %8 = load ptr, ptr %7, align 8, !tbaa !11
  %9 = load i32, ptr %1, align 4, !tbaa !9
  %10 = sext i32 %9 to i64
  %11 = getelementptr inbounds i16, ptr %8, i64 %10
  %12 = load i16, ptr %11, align 2, !tbaa !13
  %13 = zext i16 %12 to i32
  %14 = and i32 %13, 8
  %15 = icmp ne i32 %14, 0
  br i1 %15, label %28, label %16

16:                                               ; preds = %6
  %17 = load i32, ptr %1, align 4, !tbaa !9
  %18 = icmp eq i32 %17, 45
  br i1 %18, label %28, label %19

19:                                               ; preds = %16
  %20 = load i32, ptr %1, align 4, !tbaa !9
  %21 = icmp eq i32 %20, 46
  br i1 %21, label %28, label %22

22:                                               ; preds = %19
  %23 = load i32, ptr %1, align 4, !tbaa !9
  %24 = icmp eq i32 %23, 95
  br i1 %24, label %28, label %25

25:                                               ; preds = %22
  %26 = load i32, ptr %1, align 4, !tbaa !9
  %27 = icmp eq i32 %26, 126
  br i1 %27, label %28, label %32

28:                                               ; preds = %25, %22, %19, %16, %6
  %29 = load i32, ptr %1, align 4, !tbaa !9
  %30 = sext i32 %29 to i64
  %31 = getelementptr inbounds [256 x ptr], ptr @uriencode_map, i64 0, i64 %30
  store ptr null, ptr %31, align 8, !tbaa !4
  br label %44

32:                                               ; preds = %25
  %33 = load ptr, ptr %2, align 8, !tbaa !4
  %34 = load i32, ptr %1, align 4, !tbaa !9
  %35 = trunc i32 %34 to i8
  %36 = zext i8 %35 to i32
  %37 = call i32 (ptr, i64, ptr, ...) @snprintf(ptr noundef %33, i64 noundef 4, ptr noundef @.str, i32 noundef %36) #8
  %38 = load ptr, ptr %2, align 8, !tbaa !4
  %39 = load i32, ptr %1, align 4, !tbaa !9
  %40 = sext i32 %39 to i64
  %41 = getelementptr inbounds [256 x ptr], ptr @uriencode_map, i64 0, i64 %40
  store ptr %38, ptr %41, align 8, !tbaa !4
  %42 = load ptr, ptr %2, align 8, !tbaa !4
  %43 = getelementptr inbounds i8, ptr %42, i64 3
  store ptr %43, ptr %2, align 8, !tbaa !4
  br label %44

44:                                               ; preds = %32, %28
  br label %45

45:                                               ; preds = %44
  %46 = load i32, ptr %1, align 4, !tbaa !9
  %47 = add nsw i32 %46, 1
  store i32 %47, ptr %1, align 4, !tbaa !9
  br label %3, !llvm.loop !15

48:                                               ; preds = %3
  call void @llvm.lifetime.end.p0(i64 8, ptr %2) #8
  call void @llvm.lifetime.end.p0(i64 4, ptr %1) #8
  ret void
}