; Function Attrs: nofree nounwind uwtable
define dso_local void @uriencode_init() local_unnamed_addr #0 {
  %1 = tail call ptr @__ctype_b_loc() #14
  br label %2

2:                                                ; preds = %0, %14
  %indvars.iv = phi i64 [ 0, %0 ], [ %indvars.iv.next, %14 ]
  %.023 = phi ptr [ @uriencode_str, %0 ], [ %.1, %14 ]
  %3 = load ptr, ptr %1, align 8, !tbaa !4
  %4 = getelementptr inbounds nuw i16, ptr %3, i64 %indvars.iv
  %5 = load i16, ptr %4, align 2, !tbaa !9
  %.fr20 = freeze i16 %5
  %6 = and i16 %.fr20, 8
  %.not = icmp eq i16 %6, 0
  br i1 %.not, label %switch.early.test, label %7

switch.early.test:                                ; preds = %2
  %trunc = trunc i64 %indvars.iv to i8
  switch i8 %trunc, label %9 [
    i8 126, label %7
    i8 95, label %7
    i8 46, label %7
    i8 45, label %7
  ]

7:                                                ; preds = %switch.early.test, %switch.early.test, %switch.early.test, %switch.early.test, %2
  %8 = getelementptr inbounds nuw [256 x ptr], ptr @uriencode_map, i64 0, i64 %indvars.iv
  store ptr null, ptr %8, align 8, !tbaa !11
  br label %14

9:                                                ; preds = %switch.early.test
  %10 = trunc nuw nsw i64 %indvars.iv to i32
  %11 = tail call i32 (ptr, i64, ptr, ...) @snprintf(ptr noundef nonnull dereferenceable(1) %.023, i64 noundef 4, ptr noundef nonnull @.str, i32 noundef %10) #15
  %12 = getelementptr inbounds nuw [256 x ptr], ptr @uriencode_map, i64 0, i64 %indvars.iv
  store ptr %.023, ptr %12, align 8, !tbaa !11
  %13 = getelementptr inbounds nuw i8, ptr %.023, i64 3
  br label %14

14:                                               ; preds = %7, %9
  %.1 = phi ptr [ %.023, %7 ], [ %13, %9 ]
  %indvars.iv.next = add nuw nsw i64 %indvars.iv, 1
  %exitcond.not = icmp eq i64 %indvars.iv.next, 256
  br i1 %exitcond.not, label %15, label %2, !llvm.loop !13

15:                                               ; preds = %14
  ret void
}